target datalayout = "e-m:e-p270:32:32-p271:32:32-p272:64:64-i64:64-i128:128-f80:128-n8:16:32:64-S128"
target triple = "x86_64-pc-linux-gnu"

; Function Attrs: mustprogress uwtable
define hidden i32 @mbedtls_base64_encode(ptr noundef %0, i64 noundef %1, ptr noundef %2, ptr noundef %3, i64 noundef %4) #0 {
  %6 = alloca i32, align 4
  %7 = alloca ptr, align 8
  %8 = alloca i64, align 8
  %9 = alloca ptr, align 8
  %10 = alloca ptr, align 8
  %11 = alloca i64, align 8
  %12 = alloca i64, align 8
  %13 = alloca i64, align 8
  %14 = alloca i32, align 4
  %15 = alloca i32, align 4
  %16 = alloca i32, align 4
  %17 = alloca ptr, align 8
  %18 = alloca i32, align 4
  store ptr %0, ptr %7, align 8, !tbaa !3
  store i64 %1, ptr %8, align 8, !tbaa !8
  store ptr %2, ptr %9, align 8, !tbaa !10
  store ptr %3, ptr %10, align 8, !tbaa !3
  store i64 %4, ptr %11, align 8, !tbaa !8
  call void @llvm.lifetime.start.p0(i64 8, ptr %12) #3
  call void @llvm.lifetime.start.p0(i64 8, ptr %13) #3
  call void @llvm.lifetime.start.p0(i64 4, ptr %14) #3
  call void @llvm.lifetime.start.p0(i64 4, ptr %15) #3
  call void @llvm.lifetime.start.p0(i64 4, ptr %16) #3
  call void @llvm.lifetime.start.p0(i64 8, ptr %17) #3
  %19 = load i64, ptr %11, align 8, !tbaa !8
  %20 = icmp eq i64 %19, 0
  br i1 %20, label %21, label %23

21:                                               ; preds = %5
  %22 = load ptr, ptr %9, align 8, !tbaa !10
  store i64 0, ptr %22, align 8, !tbaa !8
  store i32 0, ptr %6, align 4
  store i32 1, ptr %18, align 4
  br label %175

23:                                               ; preds = %5
  %24 = load i64, ptr %11, align 8, !tbaa !8
  %25 = udiv i64 %24, 3
  %26 = load i64, ptr %11, align 8, !tbaa !8
  %27 = urem i64 %26, 3
  %28 = icmp ne i64 %27, 0
  %29 = zext i1 %28 to i64
  %30 = add i64 %25, %29
  store i64 %30, ptr %13, align 8, !tbaa !8
  %31 = load i64, ptr %13, align 8, !tbaa !8
  %32 = icmp ugt i64 %31, 4611686018427387903
  br i1 %32, label %33, label %35

33:                                               ; preds = %23
  %34 = load ptr, ptr %9, align 8, !tbaa !10
  store i64 -1, ptr %34, align 8, !tbaa !8
  store i32 -42, ptr %6, align 4
  store i32 1, ptr %18, align 4
  br label %175

35:                                               ; preds = %23
  %36 = load i64, ptr %13, align 8, !tbaa !8
  %37 = mul i64 %36, 4
  store i64 %37, ptr %13, align 8, !tbaa !8
  %38 = load i64, ptr %8, align 8, !tbaa !8
  %39 = load i64, ptr %13, align 8, !tbaa !8
  %40 = add i64 %39, 1
  %41 = icmp ult i64 %38, %40
  br i1 %41, label %45, label %42

42:                                               ; preds = %35
  %43 = load ptr, ptr %7, align 8, !tbaa !3
  %44 = icmp eq ptr null, %43
  br i1 %44, label %45, label %49

45:                                               ; preds = %42, %35
  %46 = load i64, ptr %13, align 8, !tbaa !8
  %47 = add i64 %46, 1
  %48 = load ptr, ptr %9, align 8, !tbaa !10
  store i64 %47, ptr %48, align 8, !tbaa !8
  store i32 -42, ptr %6, align 4
  store i32 1, ptr %18, align 4
  br label %175

49:                                               ; preds = %42
  %50 = load i64, ptr %11, align 8, !tbaa !8
  %51 = udiv i64 %50, 3
  %52 = mul i64 %51, 3
  store i64 %52, ptr %13, align 8, !tbaa !8
  store i64 0, ptr %12, align 8, !tbaa !8
  %53 = load ptr, ptr %7, align 8, !tbaa !3
  store ptr %53, ptr %17, align 8, !tbaa !3
  br label %54

54:                                               ; preds = %106, %49
  %55 = load i64, ptr %12, align 8, !tbaa !8
  %56 = load i64, ptr %13, align 8, !tbaa !8
  %57 = icmp ult i64 %55, %56
  br i1 %57, label %58, label %109

58:                                               ; preds = %54
  %59 = load ptr, ptr %10, align 8, !tbaa !3
  %60 = getelementptr inbounds nuw i8, ptr %59, i32 1
  store ptr %60, ptr %10, align 8, !tbaa !3
  %61 = load i8, ptr %59, align 1, !tbaa !12
  %62 = zext i8 %61 to i32
  store i32 %62, ptr %14, align 4, !tbaa !13
  %63 = load ptr, ptr %10, align 8, !tbaa !3
  %64 = getelementptr inbounds nuw i8, ptr %63, i32 1
  store ptr %64, ptr %10, align 8, !tbaa !3
  %65 = load i8, ptr %63, align 1, !tbaa !12
  %66 = zext i8 %65 to i32
  store i32 %66, ptr %15, align 4, !tbaa !13
  %67 = load ptr, ptr %10, align 8, !tbaa !3
  %68 = getelementptr inbounds nuw i8, ptr %67, i32 1
  store ptr %68, ptr %10, align 8, !tbaa !3
  %69 = load i8, ptr %67, align 1, !tbaa !12
  %70 = zext i8 %69 to i32
  store i32 %70, ptr %16, align 4, !tbaa !13
  %71 = load i32, ptr %14, align 4, !tbaa !13
  %72 = ashr i32 %71, 2
  %73 = and i32 %72, 63
  %74 = trunc i32 %73 to i8
  %75 = call noundef zeroext i8 @_Z26mbedtls_ct_base64_enc_charh(i8 noundef zeroext %74)
  %76 = load ptr, ptr %17, align 8, !tbaa !3
  %77 = getelementptr inbounds nuw i8, ptr %76, i32 1
  store ptr %77, ptr %17, align 8, !tbaa !3
  store i8 %75, ptr %76, align 1, !tbaa !12
  %78 = load i32, ptr %14, align 4, !tbaa !13
  %79 = and i32 %78, 3
  %80 = shl i32 %79, 4
  %81 = load i32, ptr %15, align 4, !tbaa !13
  %82 = ashr i32 %81, 4
  %83 = add nsw i32 %80, %82
  %84 = and i32 %83, 63
  %85 = trunc i32 %84 to i8
  %86 = call noundef zeroext i8 @_Z26mbedtls_ct_base64_enc_charh(i8 noundef zeroext %85)
  %87 = load ptr, ptr %17, align 8, !tbaa !3
  %88 = getelementptr inbounds nuw i8, ptr %87, i32 1
  store ptr %88, ptr %17, align 8, !tbaa !3
  store i8 %86, ptr %87, align 1, !tbaa !12
  %89 = load i32, ptr %15, align 4, !tbaa !13
  %90 = and i32 %89, 15
  %91 = shl i32 %90, 2
  %92 = load i32, ptr %16, align 4, !tbaa !13
  %93 = ashr i32 %92, 6
  %94 = add nsw i32 %91, %93
  %95 = and i32 %94, 63
  %96 = trunc i32 %95 to i8
  %97 = call noundef zeroext i8 @_Z26mbedtls_ct_base64_enc_charh(i8 noundef zeroext %96)
  %98 = load ptr, ptr %17, align 8, !tbaa !3
  %99 = getelementptr inbounds nuw i8, ptr %98, i32 1
  store ptr %99, ptr %17, align 8, !tbaa !3
  store i8 %97, ptr %98, align 1, !tbaa !12
  %100 = load i32, ptr %16, align 4, !tbaa !13
  %101 = and i32 %100, 63
  %102 = trunc i32 %101 to i8
  %103 = call noundef zeroext i8 @_Z26mbedtls_ct_base64_enc_charh(i8 noundef zeroext %102)
  %104 = load ptr, ptr %17, align 8, !tbaa !3
  %105 = getelementptr inbounds nuw i8, ptr %104, i32 1
  store ptr %105, ptr %17, align 8, !tbaa !3
  store i8 %103, ptr %104, align 1, !tbaa !12
  br label %106

106:                                              ; preds = %58
  %107 = load i64, ptr %12, align 8, !tbaa !8
  %108 = add i64 %107, 3
  store i64 %108, ptr %12, align 8, !tbaa !8
  br label %54, !llvm.loop !15

109:                                              ; preds = %54
  %110 = load i64, ptr %12, align 8, !tbaa !8
  %111 = load i64, ptr %11, align 8, !tbaa !8
  %112 = icmp ult i64 %110, %111
  br i1 %112, label %113, label %167

113:                                              ; preds = %109
  %114 = load ptr, ptr %10, align 8, !tbaa !3
  %115 = getelementptr inbounds nuw i8, ptr %114, i32 1
  store ptr %115, ptr %10, align 8, !tbaa !3
  %116 = load i8, ptr %114, align 1, !tbaa !12
  %117 = zext i8 %116 to i32
  store i32 %117, ptr %14, align 4, !tbaa !13
  %118 = load i64, ptr %12, align 8, !tbaa !8
  %119 = add i64 %118, 1
  %120 = load i64, ptr %11, align 8, !tbaa !8
  %121 = icmp ult i64 %119, %120
  br i1 %121, label %122, label %127

122:                                              ; preds = %113
  %123 = load ptr, ptr %10, align 8, !tbaa !3
  %124 = getelementptr inbounds nuw i8, ptr %123, i32 1
  store ptr %124, ptr %10, align 8, !tbaa !3
  %125 = load i8, ptr %123, align 1, !tbaa !12
  %126 = zext i8 %125 to i32
  br label %128

127:                                              ; preds = %113
  br label %128

128:                                              ; preds = %127, %122
  %129 = phi i32 [ %126, %122 ], [ 0, %127 ]
  store i32 %129, ptr %15, align 4, !tbaa !13
  %130 = load i32, ptr %14, align 4, !tbaa !13
  %131 = ashr i32 %130, 2
  %132 = and i32 %131, 63
  %133 = trunc i32 %132 to i8
  %134 = call noundef zeroext i8 @_Z26mbedtls_ct_base64_enc_charh(i8 noundef zeroext %133)
  %135 = load ptr, ptr %17, align 8, !tbaa !3
  %136 = getelementptr inbounds nuw i8, ptr %135, i32 1
  store ptr %136, ptr %17, align 8, !tbaa !3
  store i8 %134, ptr %135, align 1, !tbaa !12
  %137 = load i32, ptr %14, align 4, !tbaa !13
  %138 = and i32 %137, 3
  %139 = shl i32 %138, 4
  %140 = load i32, ptr %15, align 4, !tbaa !13
  %141 = ashr i32 %140, 4
  %142 = add nsw i32 %139, %141
  %143 = and i32 %142, 63
  %144 = trunc i32 %143 to i8
  %145 = call noundef zeroext i8 @_Z26mbedtls_ct_base64_enc_charh(i8 noundef zeroext %144)
  %146 = load ptr, ptr %17, align 8, !tbaa !3
  %147 = getelementptr inbounds nuw i8, ptr %146, i32 1
  store ptr %147, ptr %17, align 8, !tbaa !3
  store i8 %145, ptr %146, align 1, !tbaa !12
  %148 = load i64, ptr %12, align 8, !tbaa !8
  %149 = add i64 %148, 1
  %150 = load i64, ptr %11, align 8, !tbaa !8
  %151 = icmp ult i64 %149, %150
  br i1 %151, label %152, label %161

152:                                              ; preds = %128
  %153 = load i32, ptr %15, align 4, !tbaa !13
  %154 = and i32 %153, 15
  %155 = shl i32 %154, 2
  %156 = and i32 %155, 63
  %157 = trunc i32 %156 to i8
  %158 = call noundef zeroext i8 @_Z26mbedtls_ct_base64_enc_charh(i8 noundef zeroext %157)
  %159 = load ptr, ptr %17, align 8, !tbaa !3
  %160 = getelementptr inbounds nuw i8, ptr %159, i32 1
  store ptr %160, ptr %17, align 8, !tbaa !3
  store i8 %158, ptr %159, align 1, !tbaa !12
  br label %164

161:                                              ; preds = %128
  %162 = load ptr, ptr %17, align 8, !tbaa !3
  %163 = getelementptr inbounds nuw i8, ptr %162, i32 1
  store ptr %163, ptr %17, align 8, !tbaa !3
  store i8 61, ptr %162, align 1, !tbaa !12
  br label %164

164:                                              ; preds = %161, %152
  %165 = load ptr, ptr %17, align 8, !tbaa !3
  %166 = getelementptr inbounds nuw i8, ptr %165, i32 1
  store ptr %166, ptr %17, align 8, !tbaa !3
  store i8 61, ptr %165, align 1, !tbaa !12
  br label %167

167:                                              ; preds = %164, %109
  %168 = load ptr, ptr %17, align 8, !tbaa !3
  %169 = load ptr, ptr %7, align 8, !tbaa !3
  %170 = ptrtoint ptr %168 to i64
  %171 = ptrtoint ptr %169 to i64
  %172 = sub i64 %170, %171
  %173 = load ptr, ptr %9, align 8, !tbaa !10
  store i64 %172, ptr %173, align 8, !tbaa !8
  %174 = load ptr, ptr %17, align 8, !tbaa !3
  store i8 0, ptr %174, align 1, !tbaa !12
  store i32 0, ptr %6, align 4
  store i32 1, ptr %18, align 4
  br label %175

175:                                              ; preds = %167, %45, %33, %21
  call void @llvm.lifetime.end.p0(i64 8, ptr %17) #3
  call void @llvm.lifetime.end.p0(i64 4, ptr %16) #3
  call void @llvm.lifetime.end.p0(i64 4, ptr %15) #3
  call void @llvm.lifetime.end.p0(i64 4, ptr %14) #3
  call void @llvm.lifetime.end.p0(i64 8, ptr %13) #3
  call void @llvm.lifetime.end.p0(i64 8, ptr %12) #3
  %176 = load i32, ptr %6, align 4
  ret i32 %176
}