; Function Attrs: mustprogress uwtable
define hidden range(i32 -42, 1) i32 @mbedtls_base64_encode(ptr noundef %0, i64 noundef %1, ptr noundef writeonly captures(none) %2, ptr noundef readonly captures(none) %3, i64 noundef %4) local_unnamed_addr #0 {
  %6 = icmp eq i64 %4, 0
  br i1 %6, label %7, label %8

7:                                                ; preds = %5
  store i64 0, ptr %2, align 8, !tbaa !3
  br label %81

8:                                                ; preds = %5
  %9 = udiv i64 %4, 3
  %10 = urem i64 %4, 3
  %11 = icmp ne i64 %10, 0
  %12 = zext i1 %11 to i64
  %13 = add nuw nsw i64 %9, %12
  %14 = icmp samesign ugt i64 %13, 4611686018427387903
  br i1 %14, label %15, label %16

15:                                               ; preds = %8
  store i64 -1, ptr %2, align 8, !tbaa !3
  br label %81

16:                                               ; preds = %8
  %17 = shl nuw i64 %13, 2
  %18 = icmp ule i64 %1, %17
  %19 = icmp eq ptr %0, null
  %or.cond = or i1 %19, %18
  br i1 %or.cond, label %20, label %22

20:                                               ; preds = %16
  %21 = or disjoint i64 %17, 1
  store i64 %21, ptr %2, align 8, !tbaa !3
  br label %81

22:                                               ; preds = %16
  %23 = mul nuw i64 %9, 3
  %.not = icmp ult i64 %4, 3
  br i1 %.not, label %._crit_edge, label %.lr.ph

.lr.ph:                                           ; preds = %22, %.lr.ph
  %.060 = phi ptr [ %47, %.lr.ph ], [ %0, %22 ]
  %.05359 = phi i64 [ %48, %.lr.ph ], [ 0, %22 ]
  %.05458 = phi ptr [ %28, %.lr.ph ], [ %3, %22 ]
  %24 = getelementptr inbounds nuw i8, ptr %.05458, i64 1
  %25 = load i8, ptr %.05458, align 1, !tbaa !7
  %26 = getelementptr inbounds nuw i8, ptr %.05458, i64 2
  %27 = load i8, ptr %24, align 1, !tbaa !7
  %28 = getelementptr inbounds nuw i8, ptr %.05458, i64 3
  %29 = load i8, ptr %26, align 1, !tbaa !7
  %30 = lshr i8 %25, 2
  %31 = tail call noundef zeroext i8 @_Z26mbedtls_ct_base64_enc_charh(i8 noundef zeroext %30)
  %32 = getelementptr inbounds nuw i8, ptr %.060, i64 1
  store i8 %31, ptr %.060, align 1, !tbaa !7
  %33 = shl i8 %25, 4
  %34 = lshr i8 %27, 4
  %35 = and i8 %33, 48
  %36 = or disjoint i8 %34, %35
  %37 = tail call noundef zeroext i8 @_Z26mbedtls_ct_base64_enc_charh(i8 noundef zeroext %36)
  %38 = getelementptr inbounds nuw i8, ptr %.060, i64 2
  store i8 %37, ptr %32, align 1, !tbaa !7
  %39 = shl i8 %27, 2
  %40 = lshr i8 %29, 6
  %41 = and i8 %39, 60
  %42 = or disjoint i8 %40, %41
  %43 = tail call noundef zeroext i8 @_Z26mbedtls_ct_base64_enc_charh(i8 noundef zeroext %42)
  %44 = getelementptr inbounds nuw i8, ptr %.060, i64 3
  store i8 %43, ptr %38, align 1, !tbaa !7
  %45 = and i8 %29, 63
  %46 = tail call noundef zeroext i8 @_Z26mbedtls_ct_base64_enc_charh(i8 noundef zeroext %45)
  %47 = getelementptr inbounds nuw i8, ptr %.060, i64 4
  store i8 %46, ptr %44, align 1, !tbaa !7
  %48 = add i64 %.05359, 3
  %49 = icmp ult i64 %48, %23
  br i1 %49, label %.lr.ph, label %._crit_edge, !llvm.loop !8

._crit_edge:                                      ; preds = %.lr.ph, %22
  %.054.lcssa = phi ptr [ %3, %22 ], [ %28, %.lr.ph ]
  %.053.lcssa = phi i64 [ 0, %22 ], [ %48, %.lr.ph ]
  %.0.lcssa = phi ptr [ %0, %22 ], [ %47, %.lr.ph ]
  %50 = icmp ult i64 %.053.lcssa, %4
  br i1 %50, label %51, label %77

51:                                               ; preds = %._crit_edge
  %52 = load i8, ptr %.054.lcssa, align 1, !tbaa !7
  %53 = add nuw i64 %.053.lcssa, 1
  %54 = icmp ult i64 %53, %4
  br i1 %54, label %55, label %59

55:                                               ; preds = %51
  %56 = getelementptr inbounds nuw i8, ptr %.054.lcssa, i64 1
  %57 = load i8, ptr %56, align 1, !tbaa !7
  %58 = zext i8 %57 to i32
  br label %59

59:                                               ; preds = %51, %55
  %60 = phi i32 [ %58, %55 ], [ 0, %51 ]
  %61 = lshr i8 %52, 2
  %62 = tail call noundef zeroext i8 @_Z26mbedtls_ct_base64_enc_charh(i8 noundef zeroext %61)
  %63 = getelementptr inbounds nuw i8, ptr %.0.lcssa, i64 1
  store i8 %62, ptr %.0.lcssa, align 1, !tbaa !7
  %64 = shl i8 %52, 4
  %65 = lshr i32 %60, 4
  %66 = and i8 %64, 48
  %67 = trunc nuw nsw i32 %65 to i8
  %68 = or disjoint i8 %66, %67
  %69 = tail call noundef zeroext i8 @_Z26mbedtls_ct_base64_enc_charh(i8 noundef zeroext %68)
  %70 = getelementptr inbounds nuw i8, ptr %.0.lcssa, i64 2
  store i8 %69, ptr %63, align 1, !tbaa !7
  br i1 %54, label %71, label %75

71:                                               ; preds = %59
  %.tr = trunc nuw i32 %60 to i8
  %72 = shl i8 %.tr, 2
  %73 = and i8 %72, 60
  %74 = tail call noundef zeroext i8 @_Z26mbedtls_ct_base64_enc_charh(i8 noundef zeroext %73)
  br label %75

75:                                               ; preds = %59, %71
  %storemerge = phi i8 [ %74, %71 ], [ 61, %59 ]
  %.2 = getelementptr inbounds nuw i8, ptr %.0.lcssa, i64 3
  store i8 %storemerge, ptr %70, align 1, !tbaa !7
  %76 = getelementptr inbounds nuw i8, ptr %.0.lcssa, i64 4
  store i8 61, ptr %.2, align 1, !tbaa !7
  br label %77

77:                                               ; preds = %75, %._crit_edge
  %.1 = phi ptr [ %76, %75 ], [ %.0.lcssa, %._crit_edge ]
  %78 = ptrtoint ptr %.1 to i64
  %79 = ptrtoint ptr %0 to i64
  %80 = sub i64 %78, %79
  store i64 %80, ptr %2, align 8, !tbaa !3
  store i8 0, ptr %.1, align 1, !tbaa !7
  br label %81

81:                                               ; preds = %77, %20, %15, %7
  %.052 = phi i32 [ 0, %7 ], [ -42, %15 ], [ -42, %20 ], [ 0, %77 ]
  ret i32 %.052
}